target datalayout = "e-m:e-p270:32:32-p271:32:32-p272:64:64-i64:64-i128:128-f80:128-n8:16:32:64-S128"
target triple = "x86_64-pc-linux-gnu"

%struct._ftype_t = type { i32, i32, ptr, ptr, ptr, ptr, ptr, ptr, ptr, ptr, ptr, ptr, ptr, ptr, ptr, %union.anon, %union.anon.0, ptr, ptr, ptr, ptr, ptr, ptr, ptr, ptr, ptr, ptr, ptr, ptr, ptr, ptr, ptr }
%union.anon = type { ptr }
%union.anon.0 = type { ptr }
%struct._fvalue_t = type { ptr, %union.anon.1 }
%union.anon.1 = type { %struct._protocol_value_t }
%struct._protocol_value_t = type { ptr, i32, ptr, i8 }
%struct.slice_data_t = type { ptr, ptr, i8 }
%struct._wmem_strbuf_t = type { ptr, ptr, i64, i64 }

@type_list = hidden global [48 x ptr] zeroinitializer, align 16
@.str.102 = private unnamed_addr constant [1 x i8] zeroinitializer, align 1
@.str.103 = private unnamed_addr constant [21 x i8] c"epan/ftypes/ftypes.c\00", align 1
@__func__.fvalue_set_strbuf = private unnamed_addr constant [18 x i8] c"fvalue_set_strbuf\00", align 1
@.str.106 = private unnamed_addr constant [37 x i8] c"Fvalue strbuf allocator must be NULL\00", align 1

; Function Attrs: null_pointer_is_valid sspstrong uwtable
define void @fvalue_set_strbuf(ptr noundef %0, ptr noundef %1) #0 {
  %3 = alloca ptr, align 8
  %4 = alloca ptr, align 8
  store ptr %0, ptr %3, align 8
  store ptr %1, ptr %4, align 8
  %5 = load ptr, ptr %4, align 8
  %6 = getelementptr inbounds nuw %struct._wmem_strbuf_t, ptr %5, i32 0, i32 0
  %7 = load ptr, ptr %6, align 8
  %8 = icmp ne ptr %7, null
  br i1 %8, label %9, label %12

9:                                                ; preds = %2
  br label %10

10:                                               ; preds = %9
  call void (ptr, i32, ptr, i64, ptr, ptr, ...) @ws_log_full(ptr noundef @.str.102, i32 noundef 6, ptr noundef @.str.103, i64 noundef 1032, ptr noundef @__func__.fvalue_set_strbuf, ptr noundef @.str.106)
  br label %11

11:                                               ; preds = %10
  br label %12

12:                                               ; preds = %11, %2
  br label %13

13:                                               ; preds = %12
  br label %14

14:                                               ; preds = %13
  br label %15

15:                                               ; preds = %14
  br label %16

16:                                               ; preds = %15
  %17 = load ptr, ptr %3, align 8
  %18 = getelementptr inbounds nuw %struct._fvalue_t, ptr %17, i32 0, i32 0
  %19 = load ptr, ptr %18, align 8
  %20 = getelementptr inbounds nuw %struct._ftype_t, ptr %19, i32 0, i32 15
  %21 = load ptr, ptr %20, align 8
  %22 = load ptr, ptr %3, align 8
  %23 = load ptr, ptr %4, align 8
  call void %21(ptr noundef %22, ptr noundef %23)
  ret void
}

; Function Attrs: null_pointer_is_valid sspstrong uwtable
define ptr @fvalue_new(i32 noundef %0) #0 {
  %2 = alloca i32, align 4
  %3 = alloca ptr, align 8
  %4 = alloca ptr, align 8
  %5 = alloca ptr, align 8
  store i32 %0, ptr %2, align 4
  call void @llvm.lifetime.start.p0(i64 8, ptr %3) #9
  call void @llvm.lifetime.start.p0(i64 8, ptr %4) #9
  call void @llvm.lifetime.start.p0(i64 8, ptr %5) #9
  %6 = call noalias ptr @g_slice_alloc(i64 noundef 40) #10
  store ptr %6, ptr %3, align 8
  br label %7

7:                                                ; preds = %1
  br label %8

8:                                                ; preds = %7
  br label %9

9:                                                ; preds = %8
  %10 = load i32, ptr %2, align 4
  %11 = zext i32 %10 to i64
  %12 = getelementptr [48 x ptr], ptr @type_list, i64 0, i64 %11
  %13 = load ptr, ptr %12, align 8
  store ptr %13, ptr %4, align 8
  %14 = load ptr, ptr %4, align 8
  %15 = load ptr, ptr %3, align 8
  %16 = getelementptr inbounds nuw %struct._fvalue_t, ptr %15, i32 0, i32 0
  store ptr %14, ptr %16, align 8
  %17 = load ptr, ptr %4, align 8
  %18 = getelementptr inbounds nuw %struct._ftype_t, ptr %17, i32 0, i32 2
  %19 = load ptr, ptr %18, align 8
  store ptr %19, ptr %5, align 8
  %20 = load ptr, ptr %5, align 8
  %21 = icmp ne ptr %20, null
  br i1 %21, label %22, label %25

22:                                               ; preds = %9
  %23 = load ptr, ptr %5, align 8
  %24 = load ptr, ptr %3, align 8
  call void %23(ptr noundef %24)
  br label %25

25:                                               ; preds = %22, %9
  %26 = load ptr, ptr %3, align 8
  call void @llvm.lifetime.end.p0(i64 8, ptr %5) #9
  call void @llvm.lifetime.end.p0(i64 8, ptr %4) #9
  call void @llvm.lifetime.end.p0(i64 8, ptr %3) #9
  ret ptr %26
}

; Function Attrs: null_pointer_is_valid sspstrong uwtable
define internal ptr @slice_string(ptr noundef %0, ptr noundef %1) #0 {
  %3 = alloca ptr, align 8
  %4 = alloca ptr, align 8
  %5 = alloca %struct.slice_data_t, align 8
  %6 = alloca ptr, align 8
  store ptr %0, ptr %3, align 8
  store ptr %1, ptr %4, align 8
  call void @llvm.lifetime.start.p0(i64 24, ptr %5) #9
  call void @llvm.lifetime.start.p0(i64 8, ptr %6) #9
  %7 = load ptr, ptr %3, align 8
  %8 = getelementptr inbounds nuw %struct.slice_data_t, ptr %5, i32 0, i32 0
  store ptr %7, ptr %8, align 8
  %9 = call noalias ptr @wmem_strbuf_new(ptr noundef null, ptr noundef @.str.102)
  %10 = getelementptr inbounds nuw %struct.slice_data_t, ptr %5, i32 0, i32 1
  store ptr %9, ptr %10, align 8
  %11 = getelementptr inbounds nuw %struct.slice_data_t, ptr %5, i32 0, i32 2
  store i8 0, ptr %11, align 8
  %12 = load ptr, ptr %4, align 8
  call void @drange_foreach_drange_node(ptr noundef %12, ptr noundef @slice_func, ptr noundef %5)
  %13 = call ptr @fvalue_new(i32 noundef 26)
  store ptr %13, ptr %6, align 8
  %14 = load ptr, ptr %6, align 8
  %15 = getelementptr inbounds nuw %struct.slice_data_t, ptr %5, i32 0, i32 1
  %16 = load ptr, ptr %15, align 8
  call void @fvalue_set_strbuf(ptr noundef %14, ptr noundef %16)
  %17 = load ptr, ptr %6, align 8
  call void @llvm.lifetime.end.p0(i64 8, ptr %6) #9
  call void @llvm.lifetime.end.p0(i64 24, ptr %5) #9
  ret ptr %17
}

; Function Attrs: nounwind null_pointer_is_valid sspstrong uwtable
define i32 @fvalue_type_ftenum(ptr noundef %0) #2 {
  %2 = alloca ptr, align 8
  store ptr %0, ptr %2, align 8
  %3 = load ptr, ptr %2, align 8
  %4 = getelementptr inbounds nuw %struct._fvalue_t, ptr %3, i32 0, i32 0
  %5 = load ptr, ptr %4, align 8
  %6 = getelementptr inbounds nuw %struct._ftype_t, ptr %5, i32 0, i32 0
  %7 = load i32, ptr %6, align 8
  ret i32 %7
}

; Function Attrs: null_pointer_is_valid sspstrong uwtable
define ptr @fvalue_slice(ptr noundef %0, ptr noundef %1) #0 {
  %3 = alloca ptr, align 8
  %4 = alloca ptr, align 8
  %5 = alloca ptr, align 8
  store ptr %0, ptr %4, align 8
  store ptr %1, ptr %5, align 8
  %6 = load ptr, ptr %4, align 8
  %7 = call i32 @fvalue_type_ftenum(ptr noundef %6)
  %8 = icmp eq i32 %7, 26
  br i1 %8, label %29, label %9

9:                                                ; preds = %2
  %10 = load ptr, ptr %4, align 8
  %11 = call i32 @fvalue_type_ftenum(ptr noundef %10)
  %12 = icmp eq i32 %11, 27
  br i1 %12, label %29, label %13

13:                                               ; preds = %9
  %14 = load ptr, ptr %4, align 8
  %15 = call i32 @fvalue_type_ftenum(ptr noundef %14)
  %16 = icmp eq i32 %15, 43
  br i1 %16, label %29, label %17

17:                                               ; preds = %13
  %18 = load ptr, ptr %4, align 8
  %19 = call i32 @fvalue_type_ftenum(ptr noundef %18)
  %20 = icmp eq i32 %19, 45
  br i1 %20, label %29, label %21

21:                                               ; preds = %17
  %22 = load ptr, ptr %4, align 8
  %23 = call i32 @fvalue_type_ftenum(ptr noundef %22)
  %24 = icmp eq i32 %23, 28
  br i1 %24, label %29, label %25

25:                                               ; preds = %21
  %26 = load ptr, ptr %4, align 8
  %27 = call i32 @fvalue_type_ftenum(ptr noundef %26)
  %28 = icmp eq i32 %27, 39
  br i1 %28, label %29, label %33

29:                                               ; preds = %25, %21, %17, %13, %9, %2
  %30 = load ptr, ptr %4, align 8
  %31 = load ptr, ptr %5, align 8
  %32 = call ptr @slice_string(ptr noundef %30, ptr noundef %31)
  store ptr %32, ptr %3, align 8
  br label %37

33:                                               ; preds = %25
  %34 = load ptr, ptr %4, align 8
  %35 = load ptr, ptr %5, align 8
  %36 = call ptr @slice_bytes(ptr noundef %34, ptr noundef %35)
  store ptr %36, ptr %3, align 8
  br label %37

37:                                               ; preds = %33, %29
  %38 = load ptr, ptr %3, align 8
  ret ptr %38
}