; Function Attrs: null_pointer_is_valid sspstrong uwtable
define noundef ptr @fvalue_slice(ptr noundef %0, ptr noundef %1) local_unnamed_addr #0 {
  %3 = alloca %struct.slice_data_t, align 8
  %4 = load ptr, ptr %0, align 8
  %5 = load i32, ptr %4, align 8
  switch i32 %5, label %21 [
    i32 26, label %6
    i32 27, label %6
    i32 43, label %6
    i32 45, label %6
    i32 28, label %6
    i32 39, label %6
  ]

6:                                                ; preds = %2, %2, %2, %2, %2, %2
  call void @llvm.lifetime.start.p0(i64 24, ptr nonnull %3) #11
  store ptr %0, ptr %3, align 8
  %7 = tail call noalias ptr @wmem_strbuf_new(ptr noundef null, ptr noundef nonnull @.str.102)
  %8 = getelementptr inbounds nuw i8, ptr %3, i64 8
  store ptr %7, ptr %8, align 8
  %9 = getelementptr inbounds nuw i8, ptr %3, i64 16
  store i8 0, ptr %9, align 8
  call void @drange_foreach_drange_node(ptr noundef %1, ptr noundef nonnull @slice_func, ptr noundef nonnull %3)
  %10 = call noalias dereferenceable_or_null(40) ptr @g_slice_alloc(i64 noundef 40) #10
  %11 = load ptr, ptr getelementptr inbounds nuw (i8, ptr @type_list, i64 208), align 16
  store ptr %11, ptr %10, align 8
  %12 = getelementptr inbounds nuw i8, ptr %11, i64 8
  %13 = load ptr, ptr %12, align 8
  %.not.i.i = icmp eq ptr %13, null
  br i1 %.not.i.i, label %fvalue_new.exit.i, label %14

14:                                               ; preds = %6
  call void %13(ptr noundef %10)
  br label %fvalue_new.exit.i

fvalue_new.exit.i:                                ; preds = %14, %6
  %15 = load ptr, ptr %8, align 8
  %16 = load ptr, ptr %15, align 8
  %.not.i4.i = icmp eq ptr %16, null
  br i1 %.not.i4.i, label %slice_string.exit, label %17

17:                                               ; preds = %fvalue_new.exit.i
  call void (ptr, i32, ptr, i64, ptr, ptr, ...) @ws_log_full(ptr noundef nonnull @.str.102, i32 noundef 6, ptr noundef nonnull @.str.103, i64 noundef 1032, ptr noundef nonnull @__func__.fvalue_set_strbuf, ptr noundef nonnull @.str.106)
  br label %slice_string.exit

slice_string.exit:                                ; preds = %fvalue_new.exit.i, %17
  %18 = load ptr, ptr %10, align 8
  %19 = getelementptr inbounds nuw i8, ptr %18, i64 112
  %20 = load ptr, ptr %19, align 8
  call void %20(ptr noundef %10, ptr noundef %15)
  call void @llvm.lifetime.end.p0(i64 24, ptr nonnull %3) #11
  br label %23

21:                                               ; preds = %2
  %22 = tail call fastcc ptr @slice_bytes(ptr noundef %0, ptr noundef %1)
  br label %23

23:                                               ; preds = %21, %slice_string.exit
  %.0 = phi ptr [ %10, %slice_string.exit ], [ %22, %21 ]
  ret ptr %.0
}